; Function Attrs: mustprogress uwtable
define void @_ZN12ErrorHandler14CreateErrorMsgEPKwS1_(ptr nocapture noundef nonnull align 4 dereferenceable(14) %0, ptr noundef %1, ptr noundef %2) local_unnamed_addr #2 align 2 {
  %4 = alloca %class.uiMsgStore, align 8
  call void @llvm.lifetime.start.p0(i64 112, ptr nonnull %4)
  br label %5

5:                                                ; preds = %5, %3
  %indvars.iv.i.i = phi i64 [ 0, %3 ], [ %indvars.iv.next.i.i, %5 ]
  %6 = getelementptr inbounds [8 x ptr], ptr %4, i64 0, i64 %indvars.iv.i.i
  store ptr @.str, ptr %6, align 8
  %indvars.iv.next.i.i = add nuw nsw i64 %indvars.iv.i.i, 1
  %exitcond.not.i.i = icmp eq i64 %indvars.iv.next.i.i, 8
  br i1 %exitcond.not.i.i, label %_Z5uiMsgIJRPKwS2_EEv14UIMESSAGE_CODEDpOT_.exit, label %5, !llvm.loop !4

_Z5uiMsgIJRPKwS2_EEv14UIMESSAGE_CODEDpOT_.exit:   ; preds = %5
  %7 = getelementptr inbounds i8, ptr %4, i64 64
  %8 = getelementptr inbounds i8, ptr %4, i64 104
  call void @llvm.memset.p0.i64(ptr noundef nonnull align 8 dereferenceable(40) %7, i8 0, i64 40, i1 false)
  store i32 9, ptr %8, align 8
  %9 = getelementptr inbounds i8, ptr %4, i64 96
  store ptr %1, ptr %4, align 8
  store i32 2, ptr %9, align 8
  %10 = getelementptr inbounds i8, ptr %4, i64 8
  store ptr %2, ptr %10, align 8
  call void @_ZN10uiMsgStore3MsgEv(ptr noundef nonnull align 8 dereferenceable(108) %4)
  call void @llvm.lifetime.end.p0(i64 112, ptr nonnull %4)
  store i32 9, ptr %0, align 4
  %11 = getelementptr inbounds i8, ptr %0, i64 4
  %12 = load i32, ptr %11, align 4
  %13 = add i32 %12, 1
  store i32 %13, ptr %11, align 4
  ret void
}